(lp1
(dp2
S'test'
p3
(lp4
S'BRATS2015_Training/HGG/brats_tcia_pat378_0001'
p5
aS'BRATS2015_Training/HGG/brats_tcia_pat260_0244'
p6
aS'BRATS2015_Training/HGG/brats_tcia_pat437_0001'
p7
aS'BRATS2015_Training/LGG/brats_tcia_pat101_0001'
p8
aS'BRATS2015_Training/HGG/brats_tcia_pat153_0002'
p9
aS'BRATS2015_Training/LGG/brats_tcia_pat298_0001'
p10
aS'BRATS2015_Training/HGG/brats_tcia_pat460_0001'
p11
aS'BRATS2015_Training/HGG/brats_2013_pat0011_1'
p12
aS'BRATS2015_Training/HGG/brats_tcia_pat447_0122'
p13
aS'BRATS2015_Training/LGG/brats_tcia_pat402_0001'
p14
aS'BRATS2015_Training/HGG/brats_tcia_pat491_0001'
p15
aS'BRATS2015_Training/HGG/brats_tcia_pat455_0001'
p16
aS'BRATS2015_Training/HGG/brats_tcia_pat444_0001'
p17
aS'BRATS2015_Training/HGG/brats_tcia_pat217_0001'
p18
aS'BRATS2015_Training/HGG/brats_tcia_pat120_0001'
p19
aS'BRATS2015_Training/LGG/brats_tcia_pat325_0001'
p20
aS'BRATS2015_Training/HGG/brats_tcia_pat171_0387'
p21
aS'BRATS2015_Training/LGG/brats_tcia_pat354_0001'
p22
aS'BRATS2015_Training/HGG/brats_tcia_pat230_0710'
p23
aS'BRATS2015_Training/HGG/brats_tcia_pat247_0001'
p24
aS'BRATS2015_Training/HGG/brats_tcia_pat396_0001'
p25
aS'BRATS2015_Training/HGG/brats_tcia_pat374_1627'
p26
aS'BRATS2015_Training/HGG/brats_tcia_pat439_0360'
p27
aS'BRATS2015_Training/LGG/brats_tcia_pat241_0001'
p28
aS'BRATS2015_Training/HGG/brats_tcia_pat396_0217'
p29
aS'BRATS2015_Training/HGG/brats_tcia_pat375_0001'
p30
aS'BRATS2015_Training/HGG/brats_tcia_pat153_0109'
p31
aS'BRATS2015_Training/LGG/brats_2013_pat0011_1'
p32
aS'BRATS2015_Training/HGG/brats_tcia_pat178_0002'
p33
aS'BRATS2015_Training/HGG/brats_tcia_pat186_0001'
p34
aS'BRATS2015_Training/HGG/brats_tcia_pat118_0001'
p35
aS'BRATS2015_Training/HGG/brats_tcia_pat234_0001'
p36
aS'BRATS2015_Training/HGG/brats_tcia_pat430_0001'
p37
aS'BRATS2015_Training/HGG/brats_tcia_pat111_0001'
p38
aS'BRATS2015_Training/HGG/brats_tcia_pat370_0001'
p39
aS'BRATS2015_Training/HGG/brats_tcia_pat399_0156'
p40
aS'BRATS2015_Training/HGG/brats_tcia_pat150_0001'
p41
asS'train'
p42
(lp43
S'BRATS2015_Training/HGG/brats_tcia_pat404_0001'
p44
aS'BRATS2015_Training/HGG/brats_tcia_pat171_0618'
p45
aS'BRATS2015_Training/LGG/brats_tcia_pat408_0001'
p46
aS'BRATS2015_Training/HGG/brats_tcia_pat277_0001'
p47
aS'BRATS2015_Training/HGG/brats_tcia_pat314_0290'
p48
aS'BRATS2015_Training/HGG/brats_2013_pat0015_1'
p49
aS'BRATS2015_Training/HGG/brats_tcia_pat121_0001'
p50
aS'BRATS2015_Training/HGG/brats_tcia_pat162_0001'
p51
aS'BRATS2015_Training/HGG/brats_tcia_pat198_0001'
p52
aS'BRATS2015_Training/HGG/brats_tcia_pat203_0001'
p53
aS'BRATS2015_Training/HGG/brats_tcia_pat170_0002'
p54
aS'BRATS2015_Training/HGG/brats_2013_pat0027_1'
p55
aS'BRATS2015_Training/LGG/brats_tcia_pat312_0001'
p56
aS'BRATS2015_Training/LGG/brats_tcia_pat249_0001'
p57
aS'BRATS2015_Training/HGG/brats_tcia_pat474_0001'
p58
aS'BRATS2015_Training/LGG/brats_tcia_pat351_0001'
p59
aS'BRATS2015_Training/LGG/brats_tcia_pat480_0001'
p60
aS'BRATS2015_Training/HGG/brats_tcia_pat399_0369'
p61
aS'BRATS2015_Training/HGG/brats_tcia_pat153_0181'
p62
aS'BRATS2015_Training/HGG/brats_tcia_pat309_0203'
p63
aS'BRATS2015_Training/HGG/brats_tcia_pat164_0001'
p64
aS'BRATS2015_Training/HGG/brats_tcia_pat309_0462'
p65
aS'BRATS2015_Training/HGG/brats_tcia_pat226_0090'
p66
aS'BRATS2015_Training/HGG/brats_tcia_pat260_0001'
p67
aS'BRATS2015_Training/HGG/brats_2013_pat0008_1'
p68
aS'BRATS2015_Training/HGG/brats_tcia_pat436_0001'
p69
aS'BRATS2015_Training/HGG/brats_2013_pat0014_1'
p70
aS'BRATS2015_Training/LGG/brats_tcia_pat152_0001'
p71
aS'BRATS2015_Training/HGG/brats_tcia_pat167_0001'
p72
aS'BRATS2015_Training/HGG/brats_tcia_pat221_0001'
p73
aS'BRATS2015_Training/HGG/brats_tcia_pat193_0002'
p74
aS'BRATS2015_Training/HGG/brats_tcia_pat499_0001'
p75
aS'BRATS2015_Training/HGG/brats_tcia_pat396_0105'
p76
aS'BRATS2015_Training/HGG/brats_tcia_pat429_0001'
p77
aS'BRATS2015_Training/HGG/brats_tcia_pat374_0557'
p78
aS'BRATS2015_Training/HGG/brats_tcia_pat444_0038'
p79
aS'BRATS2015_Training/HGG/brats_tcia_pat338_0001'
p80
aS'BRATS2015_Training/LGG/brats_tcia_pat254_0001'
p81
aS'BRATS2015_Training/HGG/brats_tcia_pat439_0333'
p82
aS'BRATS2015_Training/HGG/brats_tcia_pat200_0210'
p83
aS'BRATS2015_Training/HGG/brats_tcia_pat124_0003'
p84
aS'BRATS2015_Training/HGG/brats_tcia_pat171_1231'
p85
aS'BRATS2015_Training/HGG/brats_tcia_pat448_0001'
p86
aS'BRATS2015_Training/HGG/brats_tcia_pat230_0637'
p87
aS'BRATS2015_Training/HGG/brats_tcia_pat231_0001'
p88
aS'BRATS2015_Training/HGG/brats_tcia_pat179_0001'
p89
aS'BRATS2015_Training/HGG/brats_tcia_pat230_0511'
p90
aS'BRATS2015_Training/HGG/brats_tcia_pat439_0263'
p91
aS'BRATS2015_Training/HGG/brats_tcia_pat235_0001'
p92
aS'BRATS2015_Training/HGG/brats_tcia_pat479_0001'
p93
aS'BRATS2015_Training/HGG/brats_tcia_pat198_0283'
p94
aS'BRATS2015_Training/LGG/brats_2013_pat0014_1'
p95
aS'BRATS2015_Training/LGG/brats_tcia_pat449_0001'
p96
aS'BRATS2015_Training/HGG/brats_tcia_pat171_1126'
p97
aS'BRATS2015_Training/HGG/brats_tcia_pat131_0001'
p98
aS'BRATS2015_Training/HGG/brats_tcia_pat419_0001'
p99
aS'BRATS2015_Training/HGG/brats_tcia_pat280_0001'
p100
aS'BRATS2015_Training/HGG/brats_tcia_pat138_0001'
p101
aS'BRATS2015_Training/HGG/brats_tcia_pat399_0002'
p102
aS'BRATS2015_Training/HGG/brats_2013_pat0004_1'
p103
aS'BRATS2015_Training/LGG/brats_tcia_pat346_0001'
p104
aS'BRATS2015_Training/LGG/brats_2013_pat0012_1'
p105
aS'BRATS2015_Training/HGG/brats_tcia_pat396_0294'
p106
aS'BRATS2015_Training/LGG/brats_tcia_pat282_0001'
p107
aS'BRATS2015_Training/LGG/brats_tcia_pat177_0001'
p108
aS'BRATS2015_Training/HGG/brats_tcia_pat309_0243'
p109
aS'BRATS2015_Training/LGG/brats_2013_pat0001_1'
p110
aS'BRATS2015_Training/HGG/brats_tcia_pat157_0001'
p111
aS'BRATS2015_Training/HGG/brats_tcia_pat105_0001'
p112
aS'BRATS2015_Training/HGG/brats_tcia_pat165_0001'
p113
aS'BRATS2015_Training/HGG/brats_tcia_pat370_0383'
p114
aS'BRATS2015_Training/HGG/brats_tcia_pat425_0001'
p115
aS'BRATS2015_Training/HGG/brats_tcia_pat260_0075'
p116
aS'BRATS2015_Training/HGG/brats_tcia_pat184_0001'
p117
aS'BRATS2015_Training/HGG/brats_tcia_pat396_0139'
p118
aS'BRATS2015_Training/LGG/brats_tcia_pat420_0001'
p119
aS'BRATS2015_Training/HGG/brats_tcia_pat399_0527'
p120
aS'BRATS2015_Training/HGG/brats_tcia_pat314_0150'
p121
aS'BRATS2015_Training/HGG/brats_tcia_pat332_0001'
p122
aS'BRATS2015_Training/HGG/brats_2013_pat0025_1'
p123
aS'BRATS2015_Training/HGG/brats_tcia_pat361_0001'
p124
aS'BRATS2015_Training/HGG/brats_tcia_pat211_0001'
p125
aS'BRATS2015_Training/HGG/brats_tcia_pat265_0001'
p126
aS'BRATS2015_Training/HGG/brats_tcia_pat396_0176'
p127
aS'BRATS2015_Training/HGG/brats_tcia_pat222_0122'
p128
aS'BRATS2015_Training/HGG/brats_tcia_pat399_0479'
p129
aS'BRATS2015_Training/LGG/brats_tcia_pat442_0001'
p130
aS'BRATS2015_Training/HGG/brats_tcia_pat260_0152'
p131
aS'BRATS2015_Training/LGG/brats_2013_pat0002_1'
p132
aS'BRATS2015_Training/HGG/brats_tcia_pat417_0001'
p133
aS'BRATS2015_Training/HGG/brats_tcia_pat258_0001'
p134
aS'BRATS2015_Training/HGG/brats_tcia_pat374_0001'
p135
aS'BRATS2015_Training/HGG/brats_tcia_pat290_0669'
p136
aS'BRATS2015_Training/HGG/brats_tcia_pat432_0001'
p137
aS'BRATS2015_Training/HGG/brats_tcia_pat319_0001'
p138
aS'BRATS2015_Training/HGG/brats_tcia_pat417_0019'
p139
aS'BRATS2015_Training/LGG/brats_2013_pat0015_1'
p140
aS'BRATS2015_Training/LGG/brats_tcia_pat276_0001'
p141
aS'BRATS2015_Training/HGG/brats_2013_pat0001_1'
p142
aS'BRATS2015_Training/HGG/brats_tcia_pat290_0305'
p143
aS'BRATS2015_Training/HGG/brats_tcia_pat300_0001'
p144
aS'BRATS2015_Training/HGG/brats_tcia_pat147_0001'
p145
aS'BRATS2015_Training/LGG/brats_tcia_pat387_0001'
p146
aS'BRATS2015_Training/HGG/brats_tcia_pat370_1126'
p147
aS'BRATS2015_Training/HGG/brats_tcia_pat374_1426'
p148
aS'BRATS2015_Training/HGG/brats_tcia_pat117_0001'
p149
aS'BRATS2015_Training/HGG/brats_tcia_pat368_0001'
p150
aS'BRATS2015_Training/HGG/brats_tcia_pat343_0001'
p151
aS'BRATS2015_Training/LGG/brats_tcia_pat466_0001'
p152
aS'BRATS2015_Training/HGG/brats_tcia_pat399_0595'
p153
aS'BRATS2015_Training/HGG/brats_tcia_pat321_0001'
p154
aS'BRATS2015_Training/HGG/brats_tcia_pat260_0129'
p155
aS'BRATS2015_Training/HGG/brats_tcia_pat396_0117'
p156
aS'BRATS2015_Training/HGG/brats_tcia_pat444_0104'
p157
aS'BRATS2015_Training/HGG/brats_2013_pat0007_1'
p158
aS'BRATS2015_Training/HGG/brats_2013_pat0002_1'
p159
aS'BRATS2015_Training/LGG/brats_tcia_pat202_0001'
p160
aS'BRATS2015_Training/HGG/brats_tcia_pat171_0001'
p161
aS'BRATS2015_Training/HGG/brats_tcia_pat113_0001'
p162
aS'BRATS2015_Training/HGG/brats_tcia_pat374_0801'
p163
aS'BRATS2015_Training/HGG/brats_tcia_pat153_0277'
p164
aS'BRATS2015_Training/HGG/brats_tcia_pat205_0001'
p165
aS'BRATS2015_Training/HGG/brats_tcia_pat498_0001'
p166
aS'BRATS2015_Training/LGG/brats_tcia_pat410_0001'
p167
aS'BRATS2015_Training/HGG/brats_tcia_pat280_0003'
p168
aS'BRATS2015_Training/LGG/brats_2013_pat0004_1'
p169
aS'BRATS2015_Training/HGG/brats_tcia_pat230_0481'
p170
aS'BRATS2015_Training/HGG/brats_tcia_pat372_0001'
p171
aS'BRATS2015_Training/LGG/brats_tcia_pat307_0001'
p172
aS'BRATS2015_Training/HGG/brats_tcia_pat406_0001'
p173
aS'BRATS2015_Training/LGG/brats_tcia_pat103_0001'
p174
aS'BRATS2015_Training/HGG/brats_2013_pat0010_1'
p175
aS'BRATS2015_Training/LGG/brats_tcia_pat299_0001'
p176
aS'BRATS2015_Training/LGG/brats_tcia_pat255_0001'
p177
aS'BRATS2015_Training/HGG/brats_tcia_pat401_0001'
p178
aS'BRATS2015_Training/HGG/brats_tcia_pat322_0001'
p179
aS'BRATS2015_Training/HGG/brats_tcia_pat447_0199'
p180
aS'BRATS2015_Training/LGG/brats_tcia_pat130_0001'
p181
aS'BRATS2015_Training/HGG/brats_tcia_pat309_0320'
p182
aS'BRATS2015_Training/HGG/brats_2013_pat0024_1'
p183
aS'BRATS2015_Training/HGG/brats_tcia_pat274_0001'
p184
aS'BRATS2015_Training/LGG/brats_tcia_pat470_0001'
p185
aS'BRATS2015_Training/HGG/brats_tcia_pat171_0780'
p186
aS'BRATS2015_Training/HGG/brats_tcia_pat156_0001'
p187
aS'BRATS2015_Training/HGG/brats_tcia_pat469_0001'
p188
aS'BRATS2015_Training/HGG/brats_tcia_pat370_0907'
p189
aS'BRATS2015_Training/HGG/brats_tcia_pat314_0016'
p190
aS'BRATS2015_Training/HGG/brats_tcia_pat171_0950'
p191
aS'BRATS2015_Training/HGG/brats_tcia_pat153_0165'
p192
aS'BRATS2015_Training/HGG/brats_tcia_pat133_0001'
p193
aS'BRATS2015_Training/HGG/brats_tcia_pat242_0001'
p194
aS'BRATS2015_Training/HGG/brats_tcia_pat201_0001'
p195
aS'BRATS2015_Training/HGG/brats_tcia_pat392_0340'
p196
aS'BRATS2015_Training/HGG/brats_tcia_pat149_0001'
p197
aS'BRATS2015_Training/HGG/brats_tcia_pat296_0001'
p198
aS'BRATS2015_Training/HGG/brats_2013_pat0005_1'
p199
aS'BRATS2015_Training/LGG/brats_tcia_pat451_0001'
p200
aS'BRATS2015_Training/HGG/brats_tcia_pat377_0640'
p201
aS'BRATS2015_Training/HGG/brats_tcia_pat399_0417'
p202
aS'BRATS2015_Training/HGG/brats_tcia_pat374_1165'
p203
aS'BRATS2015_Training/LGG/brats_2013_pat0006_1'
p204
aS'BRATS2015_Training/HGG/brats_tcia_pat473_0001'
p205
aS'BRATS2015_Training/HGG/brats_tcia_pat218_0001'
p206
aS'BRATS2015_Training/LGG/brats_tcia_pat261_0001'
p207
aS'BRATS2015_Training/LGG/brats_tcia_pat490_0001'
p208
aS'BRATS2015_Training/HGG/brats_tcia_pat444_0077'
p209
aS'BRATS2015_Training/LGG/brats_2013_pat0008_1'
p210
aS'BRATS2015_Training/HGG/brats_tcia_pat399_0815'
p211
aS'BRATS2015_Training/HGG/brats_2013_pat0013_1'
p212
aS'BRATS2015_Training/HGG/brats_tcia_pat192_0001'
p213
aS'BRATS2015_Training/HGG/brats_tcia_pat290_0001'
p214
aS'BRATS2015_Training/HGG/brats_tcia_pat390_0001'
p215
aS'BRATS2015_Training/LGG/brats_2013_pat0013_1'
p216
aS'BRATS2015_Training/LGG/brats_tcia_pat462_0001'
p217
aS'BRATS2015_Training/LGG/brats_tcia_pat330_0001'
p218
aS'BRATS2015_Training/HGG/brats_tcia_pat374_0909'
p219
aS'BRATS2015_Training/HGG/brats_tcia_pat409_0001'
p220
aS'BRATS2015_Training/HGG/brats_tcia_pat173_0001'
p221
aS'BRATS2015_Training/HGG/brats_tcia_pat463_0001'
p222
aS'BRATS2015_Training/HGG/brats_tcia_pat278_0001'
p223
aS'BRATS2015_Training/HGG/brats_tcia_pat374_0356'
p224
aS'BRATS2015_Training/HGG/brats_tcia_pat226_0001'
p225
aS'BRATS2015_Training/HGG/brats_tcia_pat412_0001'
p226
aS'BRATS2015_Training/HGG/brats_tcia_pat309_0120'
p227
aS'BRATS2015_Training/HGG/brats_tcia_pat199_0001'
p228
aS'BRATS2015_Training/HGG/brats_2013_pat0006_1'
p229
aS'BRATS2015_Training/HGG/brats_tcia_pat468_0001'
p230
aS'BRATS2015_Training/HGG/brats_tcia_pat399_0217'
p231
aS'BRATS2015_Training/LGG/brats_tcia_pat175_0001'
p232
aS'BRATS2015_Training/LGG/brats_tcia_pat141_0001'
p233
aS'BRATS2015_Training/HGG/brats_tcia_pat331_0001'
p234
aS'BRATS2015_Training/HGG/brats_tcia_pat394_0001'
p235
aS'BRATS2015_Training/HGG/brats_tcia_pat190_0001'
p236
aS'BRATS2015_Training/HGG/brats_tcia_pat168_0001'
p237
aS'BRATS2015_Training/HGG/brats_tcia_pat370_1354'
p238
aS'BRATS2015_Training/HGG/brats_tcia_pat314_0001'
p239
aS'BRATS2015_Training/HGG/brats_tcia_pat424_0001'
p240
aS'BRATS2015_Training/HGG/brats_2013_pat0003_1'
p241
aS'BRATS2015_Training/HGG/brats_tcia_pat328_0001'
p242
aS'BRATS2015_Training/HGG/brats_tcia_pat444_0033'
p243
asS'valid'
p244
(lp245
S'BRATS2015_Training/LGG/brats_tcia_pat109_0001'
p246
aS'BRATS2015_Training/HGG/brats_tcia_pat283_0001'
p247
aS'BRATS2015_Training/HGG/brats_2013_pat0012_1'
p248
aS'BRATS2015_Training/HGG/brats_tcia_pat222_0304'
p249
aS'BRATS2015_Training/HGG/brats_tcia_pat309_0001'
p250
aS'BRATS2015_Training/HGG/brats_tcia_pat439_0001'
p251
aS'BRATS2015_Training/HGG/brats_2013_pat0009_1'
p252
aS'BRATS2015_Training/HGG/brats_2013_pat0022_1'
p253
aS'BRATS2015_Training/LGG/brats_tcia_pat483_0001'
p254
aS'BRATS2015_Training/LGG/brats_tcia_pat413_0001'
p255
aS'BRATS2015_Training/HGG/brats_tcia_pat290_0412'
p256
aS'BRATS2015_Training/HGG/brats_tcia_pat153_0294'
p257
aS'BRATS2015_Training/HGG/brats_tcia_pat171_0200'
p258
aS'BRATS2015_Training/HGG/brats_tcia_pat411_0001'
p259
aS'BRATS2015_Training/HGG/brats_tcia_pat391_0002'
p260
aS'BRATS2015_Training/HGG/brats_tcia_pat399_0290'
p261
aS'BRATS2015_Training/HGG/brats_tcia_pat335_0001'
p262
aS'BRATS2015_Training/HGG/brats_tcia_pat290_0580'
p263
aS'BRATS2015_Training/HGG/brats_2013_pat0026_1'
p264
aS'BRATS2015_Training/LGG/brats_tcia_pat266_0001'
p265
aS'BRATS2015_Training/HGG/brats_tcia_pat135_0001'
p266
aS'BRATS2015_Training/LGG/brats_tcia_pat393_0001'
p267
aS'BRATS2015_Training/HGG/brats_tcia_pat471_0001'
p268
aS'BRATS2015_Training/HGG/brats_tcia_pat478_0001'
p269
aS'BRATS2015_Training/HGG/brats_tcia_pat151_0001'
p270
aS'BRATS2015_Training/HGG/brats_tcia_pat257_0001'
p271
aS'BRATS2015_Training/LGG/brats_tcia_pat493_0001'
p272
aS'BRATS2015_Training/HGG/brats_tcia_pat370_0569'
p273
aS'BRATS2015_Training/HGG/brats_tcia_pat260_0317'
p274
aS'BRATS2015_Training/HGG/brats_tcia_pat447_0313'
p275
aS'BRATS2015_Training/HGG/brats_tcia_pat180_0001'
p276
aS'BRATS2015_Training/LGG/brats_tcia_pat428_0001'
p277
aS'BRATS2015_Training/HGG/brats_tcia_pat208_0001'
p278
aS'BRATS2015_Training/HGG/brats_tcia_pat377_0001'
p279
aS'BRATS2015_Training/HGG/brats_tcia_pat370_1470'
p280
aS'BRATS2015_Training/HGG/brats_tcia_pat183_0001'
p281
aS'BRATS2015_Training/HGG/brats_tcia_pat230_0199'
p282
asa(dp283
g3
(lp284
g81
ag82
ag83
ag84
ag85
ag86
ag87
ag88
ag89
ag90
ag91
ag92
ag93
ag94
ag95
ag96
ag97
ag98
ag99
ag100
ag101
ag102
ag103
ag104
ag105
ag106
ag107
ag108
ag109
ag110
ag111
ag112
ag113
ag114
ag115
ag116
ag117
asg42
(lp285
g246
ag247
ag248
ag249
ag250
ag251
ag252
ag253
ag254
ag255
ag256
ag257
ag258
ag259
ag260
ag261
ag262
ag263
ag264
ag265
ag266
ag267
ag268
ag269
ag270
ag271
ag272
ag273
ag274
ag275
ag276
ag277
ag278
ag279
ag280
ag281
ag282
ag5
ag6
ag7
ag8
ag9
ag10
ag11
ag12
ag13
ag14
ag15
ag16
ag17
ag18
ag19
ag20
ag21
ag22
ag23
ag24
ag25
ag26
ag27
ag28
ag29
ag30
ag31
ag32
ag33
ag34
ag35
ag36
ag37
ag38
ag39
ag40
ag41
ag118
ag119
ag120
ag121
ag122
ag123
ag124
ag125
ag126
ag127
ag128
ag129
ag130
ag131
ag132
ag133
ag134
ag135
ag136
ag137
ag138
ag139
ag140
ag141
ag142
ag143
ag144
ag145
ag146
ag147
ag148
ag149
ag150
ag151
ag152
ag153
ag154
ag155
ag156
ag157
ag158
ag159
ag160
ag161
ag162
ag163
ag164
ag165
ag166
ag167
ag168
ag169
ag170
ag171
ag172
ag173
ag174
ag175
ag176
ag177
ag178
ag179
ag180
ag181
ag182
ag183
ag184
ag185
ag186
ag187
ag188
ag189
ag190
ag191
ag192
ag193
ag194
ag195
ag196
ag197
ag198
ag199
ag200
ag201
ag202
ag203
ag204
ag205
ag206
ag207
ag208
ag209
ag210
ag211
ag212
ag213
ag214
ag215
ag216
ag217
ag218
ag219
ag220
ag221
ag222
ag223
ag224
ag225
ag226
ag227
ag228
ag229
ag230
ag231
ag232
ag233
ag234
ag235
ag236
ag237
ag238
ag239
ag240
ag241
ag242
ag243
asg244
(lp286
g44
ag45
ag46
ag47
ag48
ag49
ag50
ag51
ag52
ag53
ag54
ag55
ag56
ag57
ag58
ag59
ag60
ag61
ag62
ag63
ag64
ag65
ag66
ag67
ag68
ag69
ag70
ag71
ag72
ag73
ag74
ag75
ag76
ag77
ag78
ag79
ag80
asa(dp287
g3
(lp288
g155
ag156
ag157
ag158
ag159
ag160
ag161
ag162
ag163
ag164
ag165
ag166
ag167
ag168
ag169
ag170
ag171
ag172
ag173
ag174
ag175
ag176
ag177
ag178
ag179
ag180
ag181
ag182
ag183
ag184
ag185
ag186
ag187
ag188
ag189
ag190
ag191
asg42
(lp289
g246
ag247
ag248
ag249
ag250
ag251
ag252
ag253
ag254
ag255
ag256
ag257
ag258
ag259
ag260
ag261
ag262
ag263
ag264
ag265
ag266
ag267
ag268
ag269
ag270
ag271
ag272
ag273
ag274
ag275
ag276
ag277
ag278
ag279
ag280
ag281
ag282
ag5
ag6
ag7
ag8
ag9
ag10
ag11
ag12
ag13
ag14
ag15
ag16
ag17
ag18
ag19
ag20
ag21
ag22
ag23
ag24
ag25
ag26
ag27
ag28
ag29
ag30
ag31
ag32
ag33
ag34
ag35
ag36
ag37
ag38
ag39
ag40
ag41
ag44
ag45
ag46
ag47
ag48
ag49
ag50
ag51
ag52
ag53
ag54
ag55
ag56
ag57
ag58
ag59
ag60
ag61
ag62
ag63
ag64
ag65
ag66
ag67
ag68
ag69
ag70
ag71
ag72
ag73
ag74
ag75
ag76
ag77
ag78
ag79
ag80
ag81
ag82
ag83
ag84
ag85
ag86
ag87
ag88
ag89
ag90
ag91
ag92
ag93
ag94
ag95
ag96
ag97
ag98
ag99
ag100
ag101
ag102
ag103
ag104
ag105
ag106
ag107
ag108
ag109
ag110
ag111
ag112
ag113
ag114
ag115
ag116
ag117
ag192
ag193
ag194
ag195
ag196
ag197
ag198
ag199
ag200
ag201
ag202
ag203
ag204
ag205
ag206
ag207
ag208
ag209
ag210
ag211
ag212
ag213
ag214
ag215
ag216
ag217
ag218
ag219
ag220
ag221
ag222
ag223
ag224
ag225
ag226
ag227
ag228
ag229
ag230
ag231
ag232
ag233
ag234
ag235
ag236
ag237
ag238
ag239
ag240
ag241
ag242
ag243
asg244
(lp290
g118
ag119
ag120
ag121
ag122
ag123
ag124
ag125
ag126
ag127
ag128
ag129
ag130
ag131
ag132
ag133
ag134
ag135
ag136
ag137
ag138
ag139
ag140
ag141
ag142
ag143
ag144
ag145
ag146
ag147
ag148
ag149
ag150
ag151
ag152
ag153
ag154
asa.